; ModuleID = '36/813.c'
source_filename = "36/813.c"
target datalayout = "e-m:e-p270:32:32-p271:32:32-p272:64:64-i64:64-f80:128-n8:16:32:64-S128"
target triple = "x86_64-pc-linux-gnu"

@.str = private unnamed_addr constant [6 x i8] c"%s %s\00", align 1
@.str.1 = private unnamed_addr constant [4 x i8] c"YES\00", align 1
@.str.2 = private unnamed_addr constant [3 x i8] c"NO\00", align 1

; Function Attrs: noinline nounwind uwtable
define dso_local i32 @main() #0 {
  %1 = alloca i32, align 4
  %2 = alloca i32, align 4
  %3 = alloca i32, align 4
  %4 = alloca i32, align 4
  %5 = alloca i32, align 4
  %6 = alloca [500 x i8], align 16
  %7 = alloca [500 x i8], align 16
  store i32 0, i32* %1, align 4
  store i32 0, i32* %3, align 4
  %8 = getelementptr inbounds [500 x i8], [500 x i8]* %6, i64 0, i64 0
  %9 = getelementptr inbounds [500 x i8], [500 x i8]* %7, i64 0, i64 0
  %10 = call i32 (i8*, ...) @__isoc99_scanf(i8* getelementptr inbounds ([6 x i8], [6 x i8]* @.str, i64 0, i64 0), i8* %8, i8* %9)
  %11 = getelementptr inbounds [500 x i8], [500 x i8]* %6, i64 0, i64 0
  %12 = call i64 @strlen(i8* %11) #3
  %13 = getelementptr inbounds [500 x i8], [500 x i8]* %7, i64 0, i64 0
  %14 = call i64 @strlen(i8* %13) #3
  %15 = icmp eq i64 %12, %14
  br i1 %15, label %16, label %79

16:                                               ; preds = %0
  %17 = getelementptr inbounds [500 x i8], [500 x i8]* %6, i64 0, i64 0
  %18 = call i64 @strlen(i8* %17) #3
  %19 = trunc i64 %18 to i32
  store i32 %19, i32* %5, align 4
  store i32 0, i32* %2, align 4
  br label %20

20:                                               ; preds = %54, %16
  %21 = load i32, i32* %2, align 4
  %22 = load i32, i32* %5, align 4
  %23 = icmp slt i32 %21, %22
  br i1 %23, label %24, label %57

24:                                               ; preds = %20
  store i32 0, i32* %3, align 4
  store i32 0, i32* %4, align 4
  br label %25

25:                                               ; preds = %46, %24
  %26 = load i32, i32* %4, align 4
  %27 = load i32, i32* %5, align 4
  %28 = icmp slt i32 %26, %27
  br i1 %28, label %29, label %49

29:                                               ; preds = %25
  %30 = load i32, i32* %2, align 4
  %31 = sext i32 %30 to i64
  %32 = getelementptr inbounds [500 x i8], [500 x i8]* %6, i64 0, i64 %31
  %33 = load i8, i8* %32, align 1
  %34 = sext i8 %33 to i32
  %35 = load i32, i32* %4, align 4
  %36 = sext i32 %35 to i64
  %37 = getelementptr inbounds [500 x i8], [500 x i8]* %7, i64 0, i64 %36
  %38 = load i8, i8* %37, align 1
  %39 = sext i8 %38 to i32
  %40 = icmp eq i32 %34, %39
  br i1 %40, label %41, label %45

41:                                               ; preds = %29
  store i32 1, i32* %3, align 4
  %42 = load i32, i32* %4, align 4
  %43 = sext i32 %42 to i64
  %44 = getelementptr inbounds [500 x i8], [500 x i8]* %7, i64 0, i64 %43
  store i8 2, i8* %44, align 1
  br label %49

45:                                               ; preds = %29
  br label %46

46:                                               ; preds = %45
  %47 = load i32, i32* %4, align 4
  %48 = add nsw i32 %47, 1
  store i32 %48, i32* %4, align 4
  br label %25

49:                                               ; preds = %41, %25
  %50 = load i32, i32* %3, align 4
  %51 = icmp eq i32 %50, 0
  br i1 %51, label %52, label %53

52:                                               ; preds = %49
  br label %57

53:                                               ; preds = %49
  br label %54

54:                                               ; preds = %53
  %55 = load i32, i32* %2, align 4
  %56 = add nsw i32 %55, 1
  store i32 %56, i32* %2, align 4
  br label %20

57:                                               ; preds = %52, %20
  %58 = load i32, i32* %3, align 4
  %59 = icmp eq i32 %58, 1
  br i1 %59, label %60, label %78

60:                                               ; preds = %57
  store i32 0, i32* %2, align 4
  br label %61

61:                                               ; preds = %74, %60
  %62 = load i32, i32* %2, align 4
  %63 = load i32, i32* %5, align 4
  %64 = icmp slt i32 %62, %63
  br i1 %64, label %65, label %77

65:                                               ; preds = %61
  %66 = load i32, i32* %2, align 4
  %67 = sext i32 %66 to i64
  %68 = getelementptr inbounds [500 x i8], [500 x i8]* %7, i64 0, i64 %67
  %69 = load i8, i8* %68, align 1
  %70 = sext i8 %69 to i32
  %71 = icmp ne i32 %70, 2
  br i1 %71, label %72, label %73

72:                                               ; preds = %65
  store i32 0, i32* %3, align 4
  br label %77

73:                                               ; preds = %65
  br label %74

74:                                               ; preds = %73
  %75 = load i32, i32* %2, align 4
  %76 = add nsw i32 %75, 1
  store i32 %76, i32* %2, align 4
  br label %61

77:                                               ; preds = %72, %61
  br label %78

78:                                               ; preds = %77, %57
  br label %79

79:                                               ; preds = %78, %0
  %80 = load i32, i32* %3, align 4
  %81 = icmp eq i32 %80, 1
  br i1 %81, label %82, label %84

82:                                               ; preds = %79
  %83 = call i32 (i8*, ...) @printf(i8* getelementptr inbounds ([4 x i8], [4 x i8]* @.str.1, i64 0, i64 0))
  br label %86

84:                                               ; preds = %79
  %85 = call i32 (i8*, ...) @printf(i8* getelementptr inbounds ([3 x i8], [3 x i8]* @.str.2, i64 0, i64 0))
  br label %86

86:                                               ; preds = %84, %82
  ret i32 0
}

declare dso_local i32 @__isoc99_scanf(i8*, ...) #1

; Function Attrs: nounwind readonly
declare dso_local i64 @strlen(i8*) #2

declare dso_local i32 @printf(i8*, ...) #1


!llvm.module.flags = !{!0}
!llvm.ident = !{!1}

!0 = !{i32 1, !"wchar_size", i32 4}
!1 = !{!"clang version 10.0.0-4ubuntu1 "}
